Friday, December 19, 09:41:08, 2003

                    Sunplus u'nSP Linker version 1.10.0 (enc)
                    -------------------------------------------

Global Symbol Name                             Global Value     Global Filename
***********************************************************************************************************************************************************************************************************************************************************************************************************
_RESET                                             80AD         "D:\PROGRA~1\Sunplus\UNSPID~3\unSPIDE\startupD.obj"
__sn_loop                                          80C9         "D:\PROGRA~1\Sunplus\UNSPID~3\unSPIDE\startupD.obj"
__sn_loop2                                         80C8         "D:\PROGRA~1\Sunplus\UNSPID~3\unSPIDE\startupD.obj"
_RES_Table                                         805A         "F:\¿ÌÂ¼¹âÅÌ\EVB061Test-KEY\Debug\Resource.obj"
_RES_09_48K_SA                                     805A         "F:\¿ÌÂ¼¹âÅÌ\EVB061Test-KEY\Debug\Resource.obj"
_RES_09_48K_EA                                     805C         "F:\¿ÌÂ¼¹âÅÌ\EVB061Test-KEY\Debug\Resource.obj"
_RES_02_48K_SA                                     805E         "F:\¿ÌÂ¼¹âÅÌ\EVB061Test-KEY\Debug\Resource.obj"
_RES_02_48K_EA                                     8060         "F:\¿ÌÂ¼¹âÅÌ\EVB061Test-KEY\Debug\Resource.obj"
_RES_03_48K_SA                                     8062         "F:\¿ÌÂ¼¹âÅÌ\EVB061Test-KEY\Debug\Resource.obj"
_RES_03_48K_EA                                     8064         "F:\¿ÌÂ¼¹âÅÌ\EVB061Test-KEY\Debug\Resource.obj"
_RES_04_48K_SA                                     8066         "F:\¿ÌÂ¼¹âÅÌ\EVB061Test-KEY\Debug\Resource.obj"
_RES_04_48K_EA                                     8068         "F:\¿ÌÂ¼¹âÅÌ\EVB061Test-KEY\Debug\Resource.obj"
_RES_05_48K_SA                                     806A         "F:\¿ÌÂ¼¹âÅÌ\EVB061Test-KEY\Debug\Resource.obj"
_RES_05_48K_EA                                     806C         "F:\¿ÌÂ¼¹âÅÌ\EVB061Test-KEY\Debug\Resource.obj"
_RES_06_48K_SA                                     806E         "F:\¿ÌÂ¼¹âÅÌ\EVB061Test-KEY\Debug\Resource.obj"
_RES_06_48K_EA                                     8070         "F:\¿ÌÂ¼¹âÅÌ\EVB061Test-KEY\Debug\Resource.obj"
_RES_07_48K_SA                                     8072         "F:\¿ÌÂ¼¹âÅÌ\EVB061Test-KEY\Debug\Resource.obj"
_RES_07_48K_EA                                     8074         "F:\¿ÌÂ¼¹âÅÌ\EVB061Test-KEY\Debug\Resource.obj"
_RES_08_48K_SA                                     8076         "F:\¿ÌÂ¼¹âÅÌ\EVB061Test-KEY\Debug\Resource.obj"
_RES_08_48K_EA                                     8078         "F:\¿ÌÂ¼¹âÅÌ\EVB061Test-KEY\Debug\Resource.obj"
_RES_01_48K_SA                                     807A         "F:\¿ÌÂ¼¹âÅÌ\EVB061Test-KEY\Debug\Resource.obj"
_RES_01_48K_EA                                     807C         "F:\¿ÌÂ¼¹âÅÌ\EVB061Test-KEY\Debug\Resource.obj"
_RES_12_48K_SA                                     807E         "F:\¿ÌÂ¼¹âÅÌ\EVB061Test-KEY\Debug\Resource.obj"
_RES_12_48K_EA                                     8080         "F:\¿ÌÂ¼¹âÅÌ\EVB061Test-KEY\Debug\Resource.obj"
_RES_11_48K_SA                                     8082         "F:\¿ÌÂ¼¹âÅÌ\EVB061Test-KEY\Debug\Resource.obj"
_RES_11_48K_EA                                     8084         "F:\¿ÌÂ¼¹âÅÌ\EVB061Test-KEY\Debug\Resource.obj"
_RES_10_48K_SA                                     8086         "F:\¿ÌÂ¼¹âÅÌ\EVB061Test-KEY\Debug\Resource.obj"
_RES_10_48K_EA                                     8088         "F:\¿ÌÂ¼¹âÅÌ\EVB061Test-KEY\Debug\Resource.obj"
T_SACM_S480_SpeechTable                            808A         "F:\¿ÌÂ¼¹âÅÌ\EVB061Test-KEY\Debug\Resource.obj"
_IOTest                                            8D43         "F:\¿ÌÂ¼¹âÅÌ\EVB061Test-KEY\Debug\EVB061Test.obj"
_KeyWakeUp                                         8D84         "F:\¿ÌÂ¼¹âÅÌ\EVB061Test-KEY\Debug\EVB061Test.obj"
_IRQ3                                              8094         "F:\¿ÌÂ¼¹âÅÌ\EVB061Test-KEY\Debug\EVB061Test.obj"
_MICTEST                                           8DB9         "F:\¿ÌÂ¼¹âÅÌ\EVB061Test-KEY\Debug\EVB061Test.obj"
_IRQ1                                              80A0         "F:\¿ÌÂ¼¹âÅÌ\EVB061Test-KEY\Debug\EVB061Test.obj"
R_SpeechType                                       1AF          "F:\¿ÌÂ¼¹âÅÌ\EVB061Test-KEY\Debug\system.obj"
_System_Initial                                    8E23         "F:\¿ÌÂ¼¹âÅÌ\EVB061Test-KEY\Debug\system.obj"
F_System_Initial                                   8E23         "F:\¿ÌÂ¼¹âÅÌ\EVB061Test-KEY\Debug\system.obj"
_System_ServiceLoop                                8E2F         "F:\¿ÌÂ¼¹âÅÌ\EVB061Test-KEY\Debug\system.obj"
F_System_ServiceLoop                               8E2F         "F:\¿ÌÂ¼¹âÅÌ\EVB061Test-KEY\Debug\system.obj"
_Clear_WatchDog                                    8E37         "F:\¿ÌÂ¼¹âÅÌ\EVB061Test-KEY\Debug\system.obj"
_RunTime2Hz                                        8E3B         "F:\¿ÌÂ¼¹âÅÌ\EVB061Test-KEY\Debug\system.obj"
_OffTime2Hz                                        8E40         "F:\¿ÌÂ¼¹âÅÌ\EVB061Test-KEY\Debug\system.obj"
_DataBusTest                                       8E4A         "F:\¿ÌÂ¼¹âÅÌ\EVB061Test-KEY\Debug\system.obj"
_BREAK                                             8024         "F:\¿ÌÂ¼¹âÅÌ\EVB061Test-KEY\Debug\isr.obj"
_IRQ0                                              8027         "F:\¿ÌÂ¼¹âÅÌ\EVB061Test-KEY\Debug\isr.obj"
_IRQ2                                              802D         "F:\¿ÌÂ¼¹âÅÌ\EVB061Test-KEY\Debug\isr.obj"
_IRQ4                                              8033         "F:\¿ÌÂ¼¹âÅÌ\EVB061Test-KEY\Debug\isr.obj"
_IRQ5                                              8036         "F:\¿ÌÂ¼¹âÅÌ\EVB061Test-KEY\Debug\isr.obj"
_IRQ6                                              8054         "F:\¿ÌÂ¼¹âÅÌ\EVB061Test-KEY\Debug\isr.obj"
_IRQ7                                              8057         "F:\¿ÌÂ¼¹âÅÌ\EVB061Test-KEY\Debug\isr.obj"
_FIQ                                               8009         "F:\¿ÌÂ¼¹âÅÌ\EVB061Test-KEY\Debug\isr.obj"
_AD_Line                                           8DBF         "F:\¿ÌÂ¼¹âÅÌ\EVB061Test-KEY\Debug\ad_line.obj"
_InitAD1                                           8DE9         "F:\¿ÌÂ¼¹âÅÌ\EVB061Test-KEY\Debug\ad_line.obj"
_InitAD2                                           8E00         "F:\¿ÌÂ¼¹âÅÌ\EVB061Test-KEY\Debug\ad_line.obj"
F_Key_Scan_Initial                                 8CC5         "F:\¿ÌÂ¼¹âÅÌ\EVB061Test-KEY\Debug\key.obj"
F_Key_Scan_ServiceLoop                             8CD0         "F:\¿ÌÂ¼¹âÅÌ\EVB061Test-KEY\Debug\key.obj"
F_Key_Scan_ServiceLoop_2                           8CF6         "F:\¿ÌÂ¼¹âÅÌ\EVB061Test-KEY\Debug\key.obj"
F_Key_DebounceCnt_Down                             8D36         "F:\¿ÌÂ¼¹âÅÌ\EVB061Test-KEY\Debug\key.obj"
_SP_GetCh                                          8D3D         "F:\¿ÌÂ¼¹âÅÌ\EVB061Test-KEY\Debug\key.obj"
F_SP_GetCh                                         8D3D         "F:\¿ÌÂ¼¹âÅÌ\EVB061Test-KEY\Debug\key.obj"
R_KeyStrobe                                        1AE          "F:\¿ÌÂ¼¹âÅÌ\EVB061Test-KEY\Debug\key.obj"
F_SP_Send_PWM                                      8A91         "F:\¿ÌÂ¼¹âÅÌ\EVB061Test-KEY\Debug\hardware.obj"
F_SP_Send_DAC1                                     8A94         "F:\¿ÌÂ¼¹âÅÌ\EVB061Test-KEY\Debug\hardware.obj"
F_SP_Send_DAC2                                     8A97         "F:\¿ÌÂ¼¹âÅÌ\EVB061Test-KEY\Debug\hardware.obj"
F_SP_Send_Two_DAC                                  8A9A         "F:\¿ÌÂ¼¹âÅÌ\EVB061Test-KEY\Debug\hardware.obj"
F_SP_Send_Out                                      8A9A         "F:\¿ÌÂ¼¹âÅÌ\EVB061Test-KEY\Debug\hardware.obj"
F_SP_Get_ADC                                       8A9F         "F:\¿ÌÂ¼¹âÅÌ\EVB061Test-KEY\Debug\hardware.obj"
F_SP_Set_P_TimerA_Ctrl                             8AA2         "F:\¿ÌÂ¼¹âÅÌ\EVB061Test-KEY\Debug\hardware.obj"
F_SP_Set_P_TimerA_Data                             8AA5         "F:\¿ÌÂ¼¹âÅÌ\EVB061Test-KEY\Debug\hardware.obj"
F_SP_Set_P_TimerB_Ctrl                             8AA8         "F:\¿ÌÂ¼¹âÅÌ\EVB061Test-KEY\Debug\hardware.obj"
F_SP_Set_P_TimerB_Data                             8AAB         "F:\¿ÌÂ¼¹âÅÌ\EVB061Test-KEY\Debug\hardware.obj"
F_SP_Set_P_INT_Ctrl                                8AAE         "F:\¿ÌÂ¼¹âÅÌ\EVB061Test-KEY\Debug\hardware.obj"
F_SP_Set_P_INT_Clear                               8AB1         "F:\¿ÌÂ¼¹âÅÌ\EVB061Test-KEY\Debug\hardware.obj"
F_SP_Set_P_SystemClock                             8AB4         "F:\¿ÌÂ¼¹âÅÌ\EVB061Test-KEY\Debug\hardware.obj"
F_SP_Set_P_DAC_Ctrl                                8AB7         "F:\¿ÌÂ¼¹âÅÌ\EVB061Test-KEY\Debug\hardware.obj"
F_SP_Set_P_ADC_Ctrl                                8ABA         "F:\¿ÌÂ¼¹âÅÌ\EVB061Test-KEY\Debug\hardware.obj"
F_SP_Write_INT_Status                              8ABD         "F:\¿ÌÂ¼¹âÅÌ\EVB061Test-KEY\Debug\hardware.obj"
F_SP_Read_INT_Status                               8AC0         "F:\¿ÌÂ¼¹âÅÌ\EVB061Test-KEY\Debug\hardware.obj"
F_SP_RampUpDAC1                                    8AF8         "F:\¿ÌÂ¼¹âÅÌ\EVB061Test-KEY\Debug\hardware.obj"
F_SP_RampDnDAC1                                    8B1C         "F:\¿ÌÂ¼¹âÅÌ\EVB061Test-KEY\Debug\hardware.obj"
F_SP_RampUpDAC2                                    8B2E         "F:\¿ÌÂ¼¹âÅÌ\EVB061Test-KEY\Debug\hardware.obj"
F_SP_RampDnDAC2                                    8B52         "F:\¿ÌÂ¼¹âÅÌ\EVB061Test-KEY\Debug\hardware.obj"
_SP_RampUpDAC1                                     8AF8         "F:\¿ÌÂ¼¹âÅÌ\EVB061Test-KEY\Debug\hardware.obj"
_SP_RampDnDAC1                                     8B1C         "F:\¿ÌÂ¼¹âÅÌ\EVB061Test-KEY\Debug\hardware.obj"
_SP_RampUpDAC2                                     8B2E         "F:\¿ÌÂ¼¹âÅÌ\EVB061Test-KEY\Debug\hardware.obj"
_SP_RampDnDAC2                                     8B52         "F:\¿ÌÂ¼¹âÅÌ\EVB061Test-KEY\Debug\hardware.obj"
F_SP_Delay                                         8BBD         "F:\¿ÌÂ¼¹âÅÌ\EVB061Test-KEY\Debug\hardware.obj"
F_SP_InitQueue                                     8B6A         "F:\¿ÌÂ¼¹âÅÌ\EVB061Test-KEY\Debug\hardware.obj"
F_SP_ReadQueue                                     8B77         "F:\¿ÌÂ¼¹âÅÌ\EVB061Test-KEY\Debug\hardware.obj"
F_SP_WriteQueue                                    8B89         "F:\¿ÌÂ¼¹âÅÌ\EVB061Test-KEY\Debug\hardware.obj"
F_SP_TestQueue                                     8B97         "F:\¿ÌÂ¼¹âÅÌ\EVB061Test-KEY\Debug\hardware.obj"
_SP_Export                                         8AEE         "F:\¿ÌÂ¼¹âÅÌ\EVB061Test-KEY\Debug\hardware.obj"
_SP_Import                                         8AE3         "F:\¿ÌÂ¼¹âÅÌ\EVB061Test-KEY\Debug\hardware.obj"
_SP_Init_IOB                                       8AD3         "F:\¿ÌÂ¼¹âÅÌ\EVB061Test-KEY\Debug\hardware.obj"
_SP_Init_IOA                                       8AC3         "F:\¿ÌÂ¼¹âÅÌ\EVB061Test-KEY\Debug\hardware.obj"
_SP_GetResource                                    8BAF         "F:\¿ÌÂ¼¹âÅÌ\EVB061Test-KEY\Debug\hardware.obj"
R_InterruptStatus                                  1B1          "F:\¿ÌÂ¼¹âÅÌ\EVB061Test-KEY\Debug\hardware.obj"
R_FIQTemp                                          1B2          "F:\¿ÌÂ¼¹âÅÌ\EVB061Test-KEY\Debug\hardware.obj"
_playS480                                          8BBE         "F:\¿ÌÂ¼¹âÅÌ\EVB061Test-KEY\Debug\main.obj"
_delay3s                                           8BF1         "F:\¿ÌÂ¼¹âÅÌ\EVB061Test-KEY\Debug\main.obj"
_main                                              8C11         "F:\¿ÌÂ¼¹âÅÌ\EVB061Test-KEY\Debug\main.obj"
_Key                                               1A7          "F:\¿ÌÂ¼¹âÅÌ\EVB061Test-KEY\Debug\main.obj"
_INTflag                                           1A8          "F:\¿ÌÂ¼¹âÅÌ\EVB061Test-KEY\Debug\main.obj"
_sum                                               1A9          "F:\¿ÌÂ¼¹âÅÌ\EVB061Test-KEY\Debug\main.obj"
_FailTimes                                         1AA          "F:\¿ÌÂ¼¹âÅÌ\EVB061Test-KEY\Debug\main.obj"
__RES_09_48K_sa                                    AC32         "F:\¿ÌÂ¼¹âÅÌ\EVB061Test-KEY\Debug\09_48k.res"
__RES_09_48K_ea                                    B117         "F:\¿ÌÂ¼¹âÅÌ\EVB061Test-KEY\Debug\09_48k.res"
__RES_02_48K_sa                                    C343         "F:\¿ÌÂ¼¹âÅÌ\EVB061Test-KEY\Debug\02_48k.res"
__RES_02_48K_ea                                    C762         "F:\¿ÌÂ¼¹âÅÌ\EVB061Test-KEY\Debug\02_48k.res"
__RES_03_48K_sa                                    BEEE         "F:\¿ÌÂ¼¹âÅÌ\EVB061Test-KEY\Debug\03_48k.res"
__RES_03_48K_ea                                    C343         "F:\¿ÌÂ¼¹âÅÌ\EVB061Test-KEY\Debug\03_48k.res"
__RES_04_48K_sa                                    A1BD         "F:\¿ÌÂ¼¹âÅÌ\EVB061Test-KEY\Debug\04_48k.res"
__RES_04_48K_ea                                    A74D         "F:\¿ÌÂ¼¹âÅÌ\EVB061Test-KEY\Debug\04_48k.res"
__RES_05_48K_sa                                    A74D         "F:\¿ÌÂ¼¹âÅÌ\EVB061Test-KEY\Debug\05_48k.res"
__RES_05_48K_ea                                    AC32         "F:\¿ÌÂ¼¹âÅÌ\EVB061Test-KEY\Debug\05_48k.res"
__RES_06_48K_sa                                    BA75         "F:\¿ÌÂ¼¹âÅÌ\EVB061Test-KEY\Debug\06_48k.res"
__RES_06_48K_ea                                    BEEE         "F:\¿ÌÂ¼¹âÅÌ\EVB061Test-KEY\Debug\06_48k.res"
__RES_07_48K_sa                                    CB6F         "F:\¿ÌÂ¼¹âÅÌ\EVB061Test-KEY\Debug\07_48k.res"
__RES_07_48K_ea                                    CEFE         "F:\¿ÌÂ¼¹âÅÌ\EVB061Test-KEY\Debug\07_48k.res"
__RES_08_48K_sa                                    8EA2         "F:\¿ÌÂ¼¹âÅÌ\EVB061Test-KEY\Debug\08_48k.res"
__RES_08_48K_ea                                    9AA1         "F:\¿ÌÂ¼¹âÅÌ\EVB061Test-KEY\Debug\08_48k.res"
__RES_01_48K_sa                                    9AA1         "F:\¿ÌÂ¼¹âÅÌ\EVB061Test-KEY\Debug\01_48k.res"
__RES_01_48K_ea                                    A1BD         "F:\¿ÌÂ¼¹âÅÌ\EVB061Test-KEY\Debug\01_48k.res"
__RES_12_48K_sa                                    B5C6         "F:\¿ÌÂ¼¹âÅÌ\EVB061Test-KEY\Debug\12_48k.res"
__RES_12_48K_ea                                    BA75         "F:\¿ÌÂ¼¹âÅÌ\EVB061Test-KEY\Debug\12_48k.res"
__RES_11_48K_sa                                    C762         "F:\¿ÌÂ¼¹âÅÌ\EVB061Test-KEY\Debug\11_48k.res"
__RES_11_48K_ea                                    CB6F         "F:\¿ÌÂ¼¹âÅÌ\EVB061Test-KEY\Debug\11_48k.res"
__RES_10_48K_sa                                    B117         "F:\¿ÌÂ¼¹âÅÌ\EVB061Test-KEY\Debug\10_48k.res"
__RES_10_48K_ea                                    B5C6         "F:\¿ÌÂ¼¹âÅÌ\EVB061Test-KEY\Debug\10_48k.res"
***********************************************************************************************************************************************************************************************************************************************************************************************************

***********************************************************************************************************************************************************************************************************************************************************************************************************
*                             S E C T I O N     S U M M A R Y                                                                                                                                                                                                                                             *
***********************************************************************************************************************************************************************************************************************************************************************************************************
*     Section Name                             Startting Address   Ending Address    Size                                                                                                                                                                                                                 *
***********************************************************************************************************************************************************************************************************************************************************************************************************
* "D:\PROGRA~1\Sunplus\UNSPID~3\unSPIDE\startupD.obj"                                                                                                                                                                                                                                                     *
*    DEBUG                                         ----                 ----         ----                                                                                                                                                                                                                 *
*    CODE                                          ----                 ----         ----                                                                                                                                                                                                                 *
*    DATA                                          ----                 ----         ----                                                                                                                                                                                                                 *
*    TEXT                                          ----                 ----         ----                                                                                                                                                                                                                 *
*    IRAM                                          ----                 ----         ----                                                                                                                                                                                                                 *
*    ISRAM                                         ----                 ----         ----                                                                                                                                                                                                                 *
*    RAM                                           ----                 ----         ----                                                                                                                                                                                                                 *
*    SRAM                                          ----                 ----         ----                                                                                                                                                                                                                 *
*    ORAM                                          ----                 ----         ----                                                                                                                                                                                                                 *
*    OSRAM                                         ----                 ----         ----                                                                                                                                                                                                                 *
*    NB_DATA                                       ----                 ----         ----                                                                                                                                                                                                                 *
*    unSP_StartUp(TEXT)                            80AD                 80C9         1D                                                                                                                                                                                                                   *
* "F:\¿ÌÂ¼¹âÅÌ\EVB061Test-KEY\Debug\Resource.obj"                                                                                                                                                                                                                                                         *
*    DEBUG                                         ----                 ----         ----                                                                                                                                                                                                                 *
*    CODE                                          ----                 ----         ----                                                                                                                                                                                                                 *
*    DATA                                          ----                 ----         ----                                                                                                                                                                                                                 *
*    TEXT                                          805A                 8093         3A                                                                                                                                                                                                                   *
*    IRAM                                          ----                 ----         ----                                                                                                                                                                                                                 *
*    ISRAM                                         ----                 ----         ----                                                                                                                                                                                                                 *
*    RAM                                           ----                 ----         ----                                                                                                                                                                                                                 *
*    SRAM                                          ----                 ----         ----                                                                                                                                                                                                                 *
*    ORAM                                          ----                 ----         ----                                                                                                                                                                                                                 *
*    OSRAM                                         ----                 ----         ----                                                                                                                                                                                                                 *
*    NB_DATA                                       ----                 ----         ----                                                                                                                                                                                                                 *
*    CTOR                                          ----                 ----         ----                                                                                                                                                                                                                 *
*    DTOR                                          ----                 ----         ----                                                                                                                                                                                                                 *
*    IM                                            ----                 ----         ----                                                                                                                                                                                                                 *
* "F:\¿ÌÂ¼¹âÅÌ\EVB061Test-KEY\Debug\EVB061Test.obj"                                                                                                                                                                                                                                                       *
*    DEBUG                                         ----                 ----         ----                                                                                                                                                                                                                 *
*    CODE                                          8D43                 8DBE         7C                                                                                                                                                                                                                   *
*    DATA                                          ----                 ----         ----                                                                                                                                                                                                                 *
*    TEXT                                          8094                 80AC         19                                                                                                                                                                                                                   *
*    IRAM                                          ----                 ----         ----                                                                                                                                                                                                                 *
*    ISRAM                                         ----                 ----         ----                                                                                                                                                                                                                 *
*    RAM                                           ----                 ----         ----                                                                                                                                                                                                                 *
*    SRAM                                          ----                 ----         ----                                                                                                                                                                                                                 *
*    ORAM                                          ----                 ----         ----                                                                                                                                                                                                                 *
*    OSRAM                                         ----                 ----         ----                                                                                                                                                                                                                 *
*    NB_DATA                                       ----                 ----         ----                                                                                                                                                                                                                 *
*    CTOR                                          ----                 ----         ----                                                                                                                                                                                                                 *
*    DTOR                                          ----                 ----         ----                                                                                                                                                                                                                 *
*    IM                                            ----                 ----         ----                                                                                                                                                                                                                 *
* "F:\¿ÌÂ¼¹âÅÌ\EVB061Test-KEY\Debug\system.obj"                                                                                                                                                                                                                                                           *
*    DEBUG                                         ----                 ----         ----                                                                                                                                                                                                                 *
*    CODE                                          8E23                 8E68         46                                                                                                                                                                                                                   *
*    DATA                                          ----                 ----         ----                                                                                                                                                                                                                 *
*    TEXT                                          ----                 ----         ----                                                                                                                                                                                                                 *
*    IRAM                                          ----                 ----         ----                                                                                                                                                                                                                 *
*    ISRAM                                         ----                 ----         ----                                                                                                                                                                                                                 *
*    RAM                                           1AF                  1AF          1                                                                                                                                                                                                                    *
*    SRAM                                          ----                 ----         ----                                                                                                                                                                                                                 *
*    ORAM                                          ----                 ----         ----                                                                                                                                                                                                                 *
*    OSRAM                                         ----                 ----         ----                                                                                                                                                                                                                 *
*    NB_DATA                                       ----                 ----         ----                                                                                                                                                                                                                 *
*    CTOR                                          ----                 ----         ----                                                                                                                                                                                                                 *
*    DTOR                                          ----                 ----         ----                                                                                                                                                                                                                 *
*    IM                                            ----                 ----         ----                                                                                                                                                                                                                 *
* "F:\¿ÌÂ¼¹âÅÌ\EVB061Test-KEY\Debug\isr.obj"                                                                                                                                                                                                                                                              *
*    DEBUG                                         ----                 ----         ----                                                                                                                                                                                                                 *
*    CODE                                          ----                 ----         ----                                                                                                                                                                                                                 *
*    DATA                                          ----                 ----         ----                                                                                                                                                                                                                 *
*    TEXT                                          8009                 8059         51                                                                                                                                                                                                                   *
*    IRAM                                          ----                 ----         ----                                                                                                                                                                                                                 *
*    ISRAM                                         ----                 ----         ----                                                                                                                                                                                                                 *
*    RAM                                           ----                 ----         ----                                                                                                                                                                                                                 *
*    SRAM                                          ----                 ----         ----                                                                                                                                                                                                                 *
*    ORAM                                          ----                 ----         ----                                                                                                                                                                                                                 *
*    OSRAM                                         ----                 ----         ----                                                                                                                                                                                                                 *
*    NB_DATA                                       ----                 ----         ----                                                                                                                                                                                                                 *
*    CTOR                                          ----                 ----         ----                                                                                                                                                                                                                 *
*    DTOR                                          ----                 ----         ----                                                                                                                                                                                                                 *
*    IM                                            ----                 ----         ----                                                                                                                                                                                                                 *
* "F:\¿ÌÂ¼¹âÅÌ\EVB061Test-KEY\Debug\ad_line.obj"                                                                                                                                                                                                                                                          *
*    DEBUG                                         ----                 ----         ----                                                                                                                                                                                                                 *
*    CODE                                          8DBF                 8E22         64                                                                                                                                                                                                                   *
*    DATA                                          ----                 ----         ----                                                                                                                                                                                                                 *
*    TEXT                                          ----                 ----         ----                                                                                                                                                                                                                 *
*    IRAM                                          ----                 ----         ----                                                                                                                                                                                                                 *
*    ISRAM                                         8E9F (0)             8EA1 (2)     3                                                                                                                                                                                                                    *
*    RAM                                           ----                 ----         ----                                                                                                                                                                                                                 *
*    SRAM                                          ----                 ----         ----                                                                                                                                                                                                                 *
*    ORAM                                          ----                 ----         ----                                                                                                                                                                                                                 *
*    OSRAM                                         ----                 ----         ----                                                                                                                                                                                                                 *
*    NB_DATA                                       ----                 ----         ----                                                                                                                                                                                                                 *
*    CTOR                                          ----                 ----         ----                                                                                                                                                                                                                 *
*    DTOR                                          ----                 ----         ----                                                                                                                                                                                                                 *
*    IM                                            ----                 ----         ----                                                                                                                                                                                                                 *
* "F:\¿ÌÂ¼¹âÅÌ\EVB061Test-KEY\Debug\key.obj"                                                                                                                                                                                                                                                              *
*    DEBUG                                         ----                 ----         ----                                                                                                                                                                                                                 *
*    CODE                                          8CC5                 8D42         7E                                                                                                                                                                                                                   *
*    DATA                                          ----                 ----         ----                                                                                                                                                                                                                 *
*    TEXT                                          ----                 ----         ----                                                                                                                                                                                                                 *
*    IRAM                                          ----                 ----         ----                                                                                                                                                                                                                 *
*    ISRAM                                         ----                 ----         ----                                                                                                                                                                                                                 *
*    RAM                                           1AB                  1AE          4                                                                                                                                                                                                                    *
*    SRAM                                          ----                 ----         ----                                                                                                                                                                                                                 *
*    ORAM                                          ----                 ----         ----                                                                                                                                                                                                                 *
*    OSRAM                                         ----                 ----         ----                                                                                                                                                                                                                 *
*    NB_DATA                                       ----                 ----         ----                                                                                                                                                                                                                 *
*    CTOR                                          ----                 ----         ----                                                                                                                                                                                                                 *
*    DTOR                                          ----                 ----         ----                                                                                                                                                                                                                 *
*    IM                                            ----                 ----         ----                                                                                                                                                                                                                 *
* "F:\¿ÌÂ¼¹âÅÌ\EVB061Test-KEY\Debug\hardware.obj"                                                                                                                                                                                                                                                         *
*    DEBUG                                         ----                 ----         ----                                                                                                                                                                                                                 *
*    CODE                                          8A91                 8BBD         12D                                                                                                                                                                                                                  *
*    DATA                                          ----                 ----         ----                                                                                                                                                                                                                 *
*    TEXT                                          ----                 ----         ----                                                                                                                                                                                                                 *
*    IRAM                                          8E69 (1B1)           8E9E (1E6)   36                                                                                                                                                                                                                   *
*    ISRAM                                         ----                 ----         ----                                                                                                                                                                                                                 *
*    RAM                                           ----                 ----         ----                                                                                                                                                                                                                 *
*    SRAM                                          ----                 ----         ----                                                                                                                                                                                                                 *
*    ORAM                                          ----                 ----         ----                                                                                                                                                                                                                 *
*    OSRAM                                         ----                 ----         ----                                                                                                                                                                                                                 *
*    NB_DATA                                       ----                 ----         ----                                                                                                                                                                                                                 *
*    CTOR                                          ----                 ----         ----                                                                                                                                                                                                                 *
*    DTOR                                          ----                 ----         ----                                                                                                                                                                                                                 *
*    IM                                            ----                 ----         ----                                                                                                                                                                                                                 *
* "F:\¿ÌÂ¼¹âÅÌ\EVB061Test-KEY\Debug\main.obj"                                                                                                                                                                                                                                                             *
*    DEBUG                                         ----                 ----         ----                                                                                                                                                                                                                 *
*    CODE                                          8BBE                 8CC4         107                                                                                                                                                                                                                  *
*    DATA                                          ----                 ----         ----                                                                                                                                                                                                                 *
*    TEXT                                          ----                 ----         ----                                                                                                                                                                                                                 *
*    IRAM                                          ----                 ----         ----                                                                                                                                                                                                                 *
*    ISRAM                                         ----                 ----         ----                                                                                                                                                                                                                 *
*    RAM                                           1A7                  1AA          4                                                                                                                                                                                                                    *
*    SRAM                                          ----                 ----         ----                                                                                                                                                                                                                 *
*    ORAM                                          ----                 ----         ----                                                                                                                                                                                                                 *
*    OSRAM                                         ----                 ----         ----                                                                                                                                                                                                                 *
*    NB_DATA                                       ----                 ----         ----                                                                                                                                                                                                                 *
*    CTOR                                          ----                 ----         ----                                                                                                                                                                                                                 *
*    DTOR                                          ----                 ----         ----                                                                                                                                                                                                                 *
*    IM                                            ----                 ----         ----                                                                                                                                                                                                                 *
* "F:\¿ÌÂ¼¹âÅÌ\EVB061Test-KEY\Debug\09_48k.res"                                                                                                                                                                                                                                                           *
*    __sn_section_RES_09_48K(DATA)                 AC32                 B116         4E5                                                                                                                                                                                                                  *
* "F:\¿ÌÂ¼¹âÅÌ\EVB061Test-KEY\Debug\02_48k.res"                                                                                                                                                                                                                                                           *
*    __sn_section_RES_02_48K(DATA)                 C343                 C761         41F                                                                                                                                                                                                                  *
* "F:\¿ÌÂ¼¹âÅÌ\EVB061Test-KEY\Debug\03_48k.res"                                                                                                                                                                                                                                                           *
*    __sn_section_RES_03_48K(DATA)                 BEEE                 C342         455                                                                                                                                                                                                                  *
* "F:\¿ÌÂ¼¹âÅÌ\EVB061Test-KEY\Debug\04_48k.res"                                                                                                                                                                                                                                                           *
*    __sn_section_RES_04_48K(DATA)                 A1BD                 A74C         590                                                                                                                                                                                                                  *
* "F:\¿ÌÂ¼¹âÅÌ\EVB061Test-KEY\Debug\05_48k.res"                                                                                                                                                                                                                                                           *
*    __sn_section_RES_05_48K(DATA)                 A74D                 AC31         4E5                                                                                                                                                                                                                  *
* "F:\¿ÌÂ¼¹âÅÌ\EVB061Test-KEY\Debug\06_48k.res"                                                                                                                                                                                                                                                           *
*    __sn_section_RES_06_48K(DATA)                 BA75                 BEED         479                                                                                                                                                                                                                  *
* "F:\¿ÌÂ¼¹âÅÌ\EVB061Test-KEY\Debug\07_48k.res"                                                                                                                                                                                                                                                           *
*    __sn_section_RES_07_48K(DATA)                 CB6F                 CEFD         38F                                                                                                                                                                                                                  *
* "F:\¿ÌÂ¼¹âÅÌ\EVB061Test-KEY\Debug\08_48k.res"                                                                                                                                                                                                                                                           *
*    __sn_section_RES_08_48K(DATA)                 8EA2                 9AA0         BFF                                                                                                                                                                                                                  *
* "F:\¿ÌÂ¼¹âÅÌ\EVB061Test-KEY\Debug\01_48k.res"                                                                                                                                                                                                                                                           *
*    __sn_section_RES_01_48K(DATA)                 9AA1                 A1BC         71C                                                                                                                                                                                                                  *
* "F:\¿ÌÂ¼¹âÅÌ\EVB061Test-KEY\Debug\12_48k.res"                                                                                                                                                                                                                                                           *
*    __sn_section_RES_12_48K(DATA)                 B5C6                 BA74         4AF                                                                                                                                                                                                                  *
* "F:\¿ÌÂ¼¹âÅÌ\EVB061Test-KEY\Debug\11_48k.res"                                                                                                                                                                                                                                                           *
*    __sn_section_RES_11_48K(DATA)                 C762                 CB6E         40D                                                                                                                                                                                                                  *
* "F:\¿ÌÂ¼¹âÅÌ\EVB061Test-KEY\Debug\10_48k.res"                                                                                                                                                                                                                                                           *
*    __sn_section_RES_10_48K(DATA)                 B117                 B5C5         4AF                                                                                                                                                                                                                  *
* "d:\working\unsp\mix\release\s480"                                                                                                                                                                                                                                                                      *
*    DEBUG                                         ----                 ----         ----                                                                                                                                                                                                                 *
*    CODE                                          80CA                 8A90         9C7                                                                                                                                                                                                                  *
*    DATA                                          ----                 ----         ----                                                                                                                                                                                                                 *
*    TEXT                                          ----                 ----         ----                                                                                                                                                                                                                 *
*    IRAM                                          ----                 ----         ----                                                                                                                                                                                                                 *
*    ISRAM                                         ----                 ----         ----                                                                                                                                                                                                                 *
*    RAM                                           1B0                  1B0          1                                                                                                                                                                                                                    *
*    SRAM                                          ----                 ----         ----                                                                                                                                                                                                                 *
*    ORAM                                          ----                 ----         ----                                                                                                                                                                                                                 *
*    OSRAM                                         ----                 ----         ----                                                                                                                                                                                                                 *
*    S480_Section(ORAM)                            3                    1A6          1A4                                                                                                                                                                                                                  *
* "Init Table"                                     8000                 8008         9                                                                                                                                                                                                                    *
***********************************************************************************************************************************************************************************************************************************************************************************************************

***********************************************************************************************************************************************************************************************************************************************************************************************************
*                             M E M O R Y     S U M M A R Y                                                                                                                                                                                                                                               *
***********************************************************************************************************************************************************************************************************************************************************************************************************
*     Type                          Total               Using        Remain                                                                                                                                                                                                                               *
***********************************************************************************************************************************************************************************************************************************************************************************************************
* "SRam/OSRam/ISRam"                40                   3            3D                                                                                                                                                                                                                                  *
* "Ram"                             800                  1E7          619                                                                                                                                                                                                                                 *
* "First Bank Rom"                  7C00                 4EFE         2D02                                                                                                                                                                                                                                *
* "Other Banks Rom"                 0                    0            0                                                                                                                                                                                                                                   *
***********************************************************************************************************************************************************************************************************************************************************************************************************

Linker Output Filename : F:\¿ÌÂ¼¹âÅÌ\EVB061Test-KEY\Debug\EVB061Test.S37
Disk  Mapping Filename : F:\¿ÌÂ¼¹âÅÌ\EVB061Test-KEY\Debug\EVB061Test.map
Symbol  Table FileName : F:\¿ÌÂ¼¹âÅÌ\EVB061Test-KEY\Debug\EVB061Test.sym
Format :                 Microtek

Linker Errors :          0
Output Format :          S37
