BL51 BANKED LINKER/LOCATER V6.05                                                        09/19/2010  16:38:49  PAGE 1


BL51 BANKED LINKER/LOCATER V6.05, INVOKED BY:
C:\KEIL\C51\BIN\BL51.EXE main.obj, LDChip.obj, LDChip_HardW.obj, uart.obj TO LD_TEST_he_wen_hui RAMSIZE (256)


MEMORY MODEL: SMALL


INPUT MODULES INCLUDED:
  main.obj (MAIN)
  LDChip.obj (LDCHIP)
  LDChip_HardW.obj (LDCHIP_HARDW)
  uart.obj (UART)
  C:\KEIL\C51\LIB\C51S.LIB (?C_STARTUP)
  C:\KEIL\C51\LIB\C51S.LIB (?C?COPY)
  C:\KEIL\C51\LIB\C51S.LIB (?C?CLDPTR)
  C:\KEIL\C51\LIB\C51S.LIB (?C?ULCMP)
  C:\KEIL\C51\LIB\C51S.LIB (?C?ULSHR)
  C:\KEIL\C51\LIB\C51S.LIB (?C?OFFXADD)
  C:\KEIL\C51\LIB\C51S.LIB (?C?PLDIIDATA)
  C:\KEIL\C51\LIB\C51S.LIB (?C?CCASE)
  C:\KEIL\C51\LIB\C51S.LIB (?C_INIT)


LINK MAP OF MODULE:  LD_TEST_he_wen_hui (MAIN)


            TYPE    BASE      LENGTH    RELOCATION   SEGMENT NAME
            -----------------------------------------------------

            * * * * * * *   D A T A   M E M O R Y   * * * * * * *
            REG     0000H     0008H     ABSOLUTE     "REG BANK 0"
            DATA    0008H     0014H     UNIT         _DATA_GROUP_
            DATA    001CH     0011H     UNIT         ?DT?LDCHIP
            DATA    002DH     0001H     UNIT         ?DT?_LD_ADJUSTMIX2SPVOLUME?LDCHIP
            IDATA   002EH     0006H     UNIT         ?ID?LDCHIP
            IDATA   0034H     0002H     UNIT         ?ID?UART
            IDATA   0036H     0001H     UNIT         ?ID?MAIN
            IDATA   0037H     0001H     UNIT         _IDATA_GROUP_
            IDATA   0038H     0001H     UNIT         ?STACK

            * * * * * * *   C O D E   M E M O R Y   * * * * * * *
            CODE    0000H     0003H     ABSOLUTE     
            CODE    0003H     0003H     ABSOLUTE     
            CODE    0006H     02D7H     UNIT         ?PR?_PLAYSOUND?MAIN
            CODE    02DDH     02BEH     UNIT         ?CO?LDCHIP
            CODE    059BH     0175H     UNIT         ?C?LIB_CODE
            CODE    0710H     0159H     UNIT         ?PR?EXTINT0HANDLER?LDCHIP
            CODE    0869H     00BBH     UNIT         ?PR?LD_RELOADMP3DATA?LDCHIP
            CODE    0924H     00B3H     UNIT         ?PR?MAIN?MAIN
            CODE    09D7H     0098H     UNIT         ?PR?LD_PLAY?LDCHIP
            CODE    0A6FH     008CH     UNIT         ?C_C51STARTUP
            CODE    0AFBH     0089H     UNIT         ?PR?LD_ASRADDFIXED?LDCHIP
            CODE    0B84H     0087H     UNIT         ?PR?LD_INIT_MP3?LDCHIP
            CODE    0C0BH     007BH     UNIT         ?PR?LD_INIT_ASR?LDCHIP
            CODE    0C86H     0070H     UNIT         ?PR?LD_INIT_COMMON?LDCHIP
            CODE    0CF6H     005BH     UNIT         ?PR?LD_ASRRUN?LDCHIP
            CODE    0D51H     004FH     UNIT         ?PR?RUNASR?MAIN
            CODE    0DA0H     004CH     UNIT         ?PR?_DELAY?LDCHIP
BL51 BANKED LINKER/LOCATER V6.05                                                      09/19/2010  16:38:49  PAGE 2


            CODE    0DECH     002FH     UNIT         ?PR?_FLASHLED?MAIN
            CODE    0E1BH     002DH     UNIT         ?PR?_LD_ADJUSTMIX2SPVOLUME?LDCHIP
            CODE    0E48H     002BH     UNIT         ?CO?MAIN
            CODE    0E73H     002BH     UNIT         ?C_INITSEG
            CODE    0E9EH     002AH     UNIT         ?PR?MCU_INIT?MAIN
            CODE    0EC8H     0027H     UNIT         ?PR?_UARTSENDSTR?UART
            CODE    0EEFH     0021H     UNIT         ?PR?LD_CHECK_ASRBUSYFLAG_B2?LDCHIP
            CODE    0F10H     001DH     UNIT         ?PR?LD_RESET?LDCHIP_HARDW
            CODE    0F2DH     001BH     UNIT         ?PR?_IO_SEND_BYTE?LDCHIP_HARDW
            CODE    0F48H     0016H     UNIT         ?PR?UARTINIT?UART
            CODE    0F5EH     000FH     UNIT         ?PR?LD_GETRESULT?LDCHIP
            CODE    0F6DH     000BH     UNIT         ?PR?_LD_WRITEREG?LDCHIP_HARDW
            CODE    0F78H     000BH     UNIT         ?PR?_LD_READREG?LDCHIP_HARDW
            CODE    0F83H     0006H     UNIT         ?PR?LD_ASRSTART?LDCHIP



OVERLAY MAP OF MODULE:   LD_TEST_he_wen_hui (MAIN)


SEGMENT                                      DATA_GROUP          IDATA_GROUP
  +--> CALLED SEGMENT                      START    LENGTH     START    LENGTH
------------------------------------------------------------------------------
?PR?EXTINT0HANDLER?LDCHIP                  0008H    0001H      -----    -----
  +--> ?PR?_LD_READREG?LDCHIP_HARDW
  +--> ?PR?_LD_WRITEREG?LDCHIP_HARDW
  +--> ?PR?_DELAY?LDCHIP
  +--> ?PR?LD_RELOADMP3DATA?LDCHIP

?PR?_DELAY?LDCHIP                          0016H    0006H      -----    -----

?PR?LD_RELOADMP3DATA?LDCHIP                0009H    0005H      -----    -----
  +--> ?PR?_IO_SEND_BYTE?LDCHIP_HARDW
  +--> ?PR?_LD_WRITEREG?LDCHIP_HARDW
  +--> ?PR?_LD_READREG?LDCHIP_HARDW

*** NEW ROOT ***************************************************

?C_C51STARTUP                              -----    -----      -----    -----
  +--> ?PR?MAIN?MAIN
  +--> ?C_INITSEG

?PR?MAIN?MAIN                              -----    -----      0037H    0001H
  +--> ?PR?_FLASHLED?MAIN
  +--> ?PR?MCU_INIT?MAIN
  +--> ?PR?LD_RESET?LDCHIP_HARDW
  +--> ?PR?UARTINIT?UART
  +--> ?CO?MAIN
  +--> ?PR?_UARTSENDSTR?UART
  +--> ?PR?_DELAY?LDCHIP
  +--> ?PR?RUNASR?MAIN
  +--> ?PR?LD_GETRESULT?LDCHIP
  +--> ?PR?_PLAYSOUND?MAIN

?PR?_FLASHLED?MAIN                         000FH    0002H      -----    -----
  +--> ?PR?_DELAY?LDCHIP

BL51 BANKED LINKER/LOCATER V6.05                                                      09/19/2010  16:38:49  PAGE 3


?PR?LD_RESET?LDCHIP_HARDW                  -----    -----      -----    -----
  +--> ?PR?_DELAY?LDCHIP

?PR?_UARTSENDSTR?UART                      0015H    0003H      -----    -----

?PR?RUNASR?MAIN                            000FH    0002H      -----    -----
  +--> ?PR?LD_ASRSTART?LDCHIP
  +--> ?PR?_DELAY?LDCHIP
  +--> ?PR?LD_ASRADDFIXED?LDCHIP
  +--> ?PR?LD_ASRRUN?LDCHIP
  +--> ?PR?LD_RESET?LDCHIP_HARDW

?PR?LD_ASRSTART?LDCHIP                     -----    -----      -----    -----
  +--> ?PR?LD_INIT_COMMON?LDCHIP
  +--> ?PR?LD_INIT_ASR?LDCHIP

?PR?LD_INIT_COMMON?LDCHIP                  -----    -----      -----    -----
  +--> ?PR?_LD_READREG?LDCHIP_HARDW
  +--> ?PR?_LD_WRITEREG?LDCHIP_HARDW
  +--> ?PR?_DELAY?LDCHIP

?PR?LD_INIT_ASR?LDCHIP                     -----    -----      -----    -----
  +--> ?PR?_LD_WRITEREG?LDCHIP_HARDW
  +--> ?PR?_DELAY?LDCHIP

?PR?LD_ASRADDFIXED?LDCHIP                  0011H    0003H      -----    -----
  +--> ?PR?LD_CHECK_ASRBUSYFLAG_B2?LDCHIP
  +--> ?CO?LDCHIP
  +--> ?PR?_LD_WRITEREG?LDCHIP_HARDW
  +--> ?PR?_DELAY?LDCHIP

?PR?LD_CHECK_ASRBUSYFLAG_B2?LDCHIP         0014H    0002H      -----    -----
  +--> ?PR?_LD_READREG?LDCHIP_HARDW
  +--> ?PR?_DELAY?LDCHIP

?PR?LD_ASRRUN?LDCHIP                       -----    -----      -----    -----
  +--> ?PR?_LD_WRITEREG?LDCHIP_HARDW
  +--> ?PR?_DELAY?LDCHIP
  +--> ?PR?LD_CHECK_ASRBUSYFLAG_B2?LDCHIP

?PR?LD_GETRESULT?LDCHIP                    -----    -----      -----    -----
  +--> ?PR?_LD_READREG?LDCHIP_HARDW

?PR?_PLAYSOUND?MAIN                        000FH    0006H      -----    -----
  +--> ?CO?MAIN
  +--> ?PR?_UARTSENDSTR?UART



SYMBOL TABLE OF MODULE:  LD_TEST_he_wen_hui (MAIN)

  VALUE           TYPE          NAME
  ----------------------------------

  -------         MODULE        MAIN
  C:0000H         SYMBOL        _ICE_DUMMY_
  D:0080H         PUBLIC        P0
BL51 BANKED LINKER/LOCATER V6.05                                                      09/19/2010  16:38:49  PAGE 4


  D:0090H         PUBLIC        P1
  D:00A0H         PUBLIC        P2
  D:00B0H         PUBLIC        P3
  D:00C0H         PUBLIC        P4
  B:00A8H.7       PUBLIC        EA
  B:00B0H.4       PUBLIC        LED1
  B:00B0H.5       PUBLIC        LED2
  D:00A8H         PUBLIC        IE
  D:00B8H         PUBLIC        IP
  C:0D51H         PUBLIC        RunASR
  I:0036H         PUBLIC        nAsrStatus
  B:00B8H.4       PUBLIC        PS
  D:00D8H         PUBLIC        CCON
  C:0006H         PUBLIC        _PlaySound
  C:0924H         PUBLIC        main
  D:0098H         PUBLIC        SCON
  D:0088H         PUBLIC        TCON
  C:0E6EH         SYMBOL        _?ix1000
  C:0DECH         PUBLIC        _FlashLED
  B:00A8H.1       PUBLIC        ET0
  B:00C0H.1       PUBLIC        BUZZ
  B:00A8H.0       PUBLIC        EX0
  B:00A8H.2       PUBLIC        EX1
  B:00B8H.1       PUBLIC        PT0
  B:00B8H.0       PUBLIC        PX0
  D:00B7H         PUBLIC        IPH
  D:00D0H         PUBLIC        PSW
  C:0E9EH         PUBLIC        MCU_init
  -------         PROC          MAIN
  -------         DO            
  I:0037H         SYMBOL        nAsrRes
  -------         ENDDO         
  C:0924H         LINE#         31
  C:0924H         LINE#         32
  C:0924H         LINE#         34
  C:0929H         LINE#         35
  C:092CH         LINE#         36
  C:092FH         LINE#         37
  C:0932H         LINE#         38
  C:093BH         LINE#         39
  C:093FH         LINE#         41
  C:0941H         LINE#         42
  C:094AH         LINE#         43
  C:094CH         LINE#         44
  C:094CH         LINE#         45
  C:094CH         LINE#         46
  C:0950H         LINE#         47
  C:0950H         LINE#         49
  C:0962H         LINE#         50
  C:0962H         LINE#         51
  C:0962H         LINE#         52
  C:0962H         LINE#         53
  C:0962H         LINE#         54
  C:0962H         LINE#         55
  C:0962H         LINE#         56
  C:0967H         LINE#         57
  C:096BH         LINE#         59
BL51 BANKED LINKER/LOCATER V6.05                                                      09/19/2010  16:38:49  PAGE 5


  C:0971H         LINE#         60
  C:0971H         LINE#         61
  C:0975H         LINE#         62
  C:0977H         LINE#         63
  C:0979H         LINE#         65
  C:097CH         LINE#         67
  C:0985H         LINE#         68
  C:0985H         LINE#         70
  C:0985H         LINE#         71
  C:0987H         LINE#         72
  C:0987H         LINE#         73
  C:0987H         LINE#         74
  C:0987H         LINE#         75
  C:098CH         LINE#         76
  C:0993H         LINE#         77
  C:0997H         LINE#         78
  C:0997H         LINE#         79
  C:099CH         LINE#         80
  C:099EH         LINE#         81
  C:09A9H         LINE#         82
  C:09ABH         LINE#         83
  C:09B6H         LINE#         84
  C:09B8H         LINE#         85
  C:09C3H         LINE#         86
  C:09C5H         LINE#         87
  C:09C5H         LINE#         88
  C:09C9H         LINE#         89
  C:09CBH         LINE#         90
  C:09CBH         LINE#         91
  C:09CBH         LINE#         92
  C:09CBH         LINE#         93
  C:09CBH         LINE#         94
  C:09D0H         LINE#         96
  C:09D4H         LINE#         97
  -------         ENDPROC       MAIN
  -------         PROC          MCU_INIT
  C:0E9EH         LINE#         111
  C:0E9EH         LINE#         112
  C:0E9EH         LINE#         113
  C:0EA0H         LINE#         114
  C:0EA2H         LINE#         115
  C:0EA5H         LINE#         116
  C:0EA8H         LINE#         117
  C:0EABH         LINE#         118
  C:0EAEH         LINE#         119
  C:0EB1H         LINE#         121
  C:0EB4H         LINE#         122
  C:0EB6H         LINE#         124
  C:0EB8H         LINE#         125
  C:0EBAH         LINE#         126
  C:0EBCH         LINE#         127
  C:0EBFH         LINE#         129
  C:0EC1H         LINE#         130
  C:0EC3H         LINE#         131
  C:0EC5H         LINE#         132
  C:0EC7H         LINE#         133
  -------         ENDPROC       MCU_INIT
BL51 BANKED LINKER/LOCATER V6.05                                                      09/19/2010  16:38:49  PAGE 6


  -------         PROC          _FLASHLED
  D:000FH         SYMBOL        nTimes
  -------         DO            
  D:0010H         SYMBOL        k
  -------         ENDDO         
  C:0DECH         LINE#         142
  C:0DEEH         LINE#         143
  C:0DEEH         LINE#         145
  C:0DF8H         LINE#         146
  C:0DF8H         LINE#         147
  C:0DFAH         LINE#         148
  C:0DFCH         LINE#         149
  C:0E07H         LINE#         150
  C:0E09H         LINE#         151
  C:0E0BH         LINE#         152
  C:0E16H         LINE#         153
  C:0E1AH         LINE#         154
  -------         ENDPROC       _FLASHLED
  -------         PROC          _PLAYSOUND
  D:000FH         SYMBOL        nCode
  -------         DO            
  D:0010H         SYMBOL        Buff_Dat
  -------         ENDDO         
  C:0006H         LINE#         163
  C:0008H         LINE#         164
  C:0008H         LINE#         165
  C:001BH         LINE#         166
  C:006CH         LINE#         167
  C:006CH         LINE#         168
  C:006CH         LINE#         169
  C:0075H         LINE#         170
  C:007FH         LINE#         172
  C:0082H         LINE#         173
  C:0082H         LINE#         174
  C:0085H         LINE#         175
  C:0085H         LINE#         176
  C:008EH         LINE#         177
  C:0098H         LINE#         179
  C:009BH         LINE#         180
  C:009BH         LINE#         181
  C:009EH         LINE#         182
  C:009EH         LINE#         183
  C:00A7H         LINE#         184
  C:00B1H         LINE#         186
  C:00B4H         LINE#         187
  C:00B4H         LINE#         188
  C:00B7H         LINE#         189
  C:00B7H         LINE#         190
  C:00C0H         LINE#         191
  C:00CAH         LINE#         193
  C:00CDH         LINE#         194
  C:00CDH         LINE#         195
  C:00D0H         LINE#         196
  C:00D0H         LINE#         197
  C:00DAH         LINE#         198
  C:00E4H         LINE#         200
  C:00E7H         LINE#         201
BL51 BANKED LINKER/LOCATER V6.05                                                      09/19/2010  16:38:49  PAGE 7


  C:00E7H         LINE#         202
  C:00EAH         LINE#         203
  C:00EAH         LINE#         204
  C:00F4H         LINE#         205
  C:00FEH         LINE#         207
  C:0101H         LINE#         208
  C:0101H         LINE#         209
  C:0104H         LINE#         210
  C:0104H         LINE#         211
  C:010EH         LINE#         212
  C:0118H         LINE#         214
  C:011BH         LINE#         215
  C:011BH         LINE#         216
  C:011EH         LINE#         217
  C:011EH         LINE#         218
  C:0128H         LINE#         219
  C:0132H         LINE#         221
  C:0135H         LINE#         222
  C:0135H         LINE#         223
  C:0138H         LINE#         224
  C:0138H         LINE#         225
  C:0142H         LINE#         226
  C:014CH         LINE#         228
  C:014FH         LINE#         229
  C:014FH         LINE#         230
  C:0152H         LINE#         231
  C:0152H         LINE#         232
  C:015CH         LINE#         233
  C:0166H         LINE#         235
  C:0169H         LINE#         236
  C:0169H         LINE#         237
  C:016CH         LINE#         238
  C:016CH         LINE#         239
  C:0176H         LINE#         240
  C:0180H         LINE#         242
  C:0183H         LINE#         243
  C:0183H         LINE#         244
  C:0186H         LINE#         245
  C:0186H         LINE#         246
  C:0190H         LINE#         247
  C:019AH         LINE#         249
  C:019DH         LINE#         250
  C:019DH         LINE#         251
  C:01A0H         LINE#         252
  C:01A0H         LINE#         253
  C:01AAH         LINE#         254
  C:01B4H         LINE#         256
  C:01B7H         LINE#         257
  C:01B7H         LINE#         258
  C:01BAH         LINE#         259
  C:01BAH         LINE#         260
  C:01C4H         LINE#         261
  C:01CEH         LINE#         263
  C:01D1H         LINE#         264
  C:01D1H         LINE#         265
  C:01D4H         LINE#         267
  C:01D4H         LINE#         268
BL51 BANKED LINKER/LOCATER V6.05                                                      09/19/2010  16:38:49  PAGE 8


  C:01DDH         LINE#         269
  C:01E7H         LINE#         271
  C:01EAH         LINE#         272
  C:01EAH         LINE#         273
  C:01EDH         LINE#         274
  C:01EDH         LINE#         275
  C:01F6H         LINE#         276
  C:0200H         LINE#         278
  C:0203H         LINE#         279
  C:0203H         LINE#         280
  C:0206H         LINE#         281
  C:0206H         LINE#         282
  C:0210H         LINE#         283
  C:021AH         LINE#         285
  C:021DH         LINE#         286
  C:021DH         LINE#         287
  C:0220H         LINE#         288
  C:0220H         LINE#         289
  C:022AH         LINE#         290
  C:0234H         LINE#         292
  C:0237H         LINE#         293
  C:0237H         LINE#         294
  C:023AH         LINE#         295
  C:023AH         LINE#         296
  C:0244H         LINE#         297
  C:024EH         LINE#         299
  C:0251H         LINE#         300
  C:0251H         LINE#         301
  C:0253H         LINE#         302
  C:0253H         LINE#         303
  C:025DH         LINE#         304
  C:0267H         LINE#         306
  C:026AH         LINE#         307
  C:026AH         LINE#         308
  C:026CH         LINE#         309
  C:026CH         LINE#         310
  C:0276H         LINE#         311
  C:0280H         LINE#         313
  C:0283H         LINE#         314
  C:0283H         LINE#         315
  C:0285H         LINE#         316
  C:0285H         LINE#         317
  C:028FH         LINE#         318
  C:0299H         LINE#         320
  C:029CH         LINE#         321
  C:029CH         LINE#         322
  C:029EH         LINE#         323
  C:029EH         LINE#         324
  C:02A8H         LINE#         325
  C:02B2H         LINE#         327
  C:02B5H         LINE#         328
  C:02B8H         LINE#         329
  C:02BAH         LINE#         330
  C:02BAH         LINE#         331
  C:02C4H         LINE#         332
  C:02CEH         LINE#         334
  C:02D1H         LINE#         335
BL51 BANKED LINKER/LOCATER V6.05                                                      09/19/2010  16:38:49  PAGE 9


  C:02D4H         LINE#         336
  C:02D4H         LINE#         338
  C:02D4H         LINE#         339
  C:02D4H         LINE#         340
  C:02D4H         LINE#         341
  -------         ENDPROC       _PLAYSOUND
  -------         PROC          RUNASR
  -------         DO            
  D:000FH         SYMBOL        i
  D:0010H         SYMBOL        asrflag
  -------         ENDDO         
  C:0D51H         LINE#         356
  C:0D51H         LINE#         357
  C:0D51H         LINE#         358
  C:0D54H         LINE#         359
  C:0D56H         LINE#         360
  C:0D58H         LINE#         361
  C:0D58H         LINE#         362
  C:0D5BH         LINE#         363
  C:0D66H         LINE#         364
  C:0D6CH         LINE#         365
  C:0D6CH         LINE#         366
  C:0D6CH         LINE#         367
  C:0D6CH         LINE#         368
  C:0D6EH         LINE#         369
  C:0D6EH         LINE#         370
  C:0D79H         LINE#         371
  C:0D7FH         LINE#         372
  C:0D7FH         LINE#         373
  C:0D82H         LINE#         374
  C:0D8DH         LINE#         375
  C:0D8FH         LINE#         376
  C:0D8FH         LINE#         378
  C:0D92H         LINE#         379
  C:0D94H         LINE#         380
  C:0D9DH         LINE#         382
  C:0D9FH         LINE#         383
  -------         ENDPROC       RUNASR
  -------         ENDMOD        MAIN

  -------         MODULE        LDCHIP
  C:0000H         SYMBOL        _ICE_DUMMY_
  D:0090H         PUBLIC        P1
  D:00B0H         PUBLIC        P3
  I:002EH         PUBLIC        ucHighInt
  C:09D7H         PUBLIC        LD_Play
  D:00A8H         PUBLIC        IE
  C:0DA8H         PUBLIC        _delay
  D:001CH         PUBLIC        nMp3Pos
  C:0F5EH         PUBLIC        LD_GetResult
  C:0AFBH         PUBLIC        LD_AsrAddFixed
  D:00B8H         PUBLIC        IP
  I:002FH         PUBLIC        ucRegVal
  C:0E1BH         PUBLIC        _LD_AdjustMIX2SPVolume
  D:00D8H         PUBLIC        CCON
  D:0020H         PUBLIC        nMp3StartPos
  C:0F83H         PUBLIC        LD_AsrStart
BL51 BANKED LINKER/LOCATER V6.05                                                      09/19/2010  16:38:49  PAGE 10


  B:0090H.3       PUBLIC        FLASH_CLK
  I:0030H         PUBLIC        ucSPVol
  C:0EEFH         PUBLIC        LD_Check_ASRBusyFlag_b2
  D:0098H         PUBLIC        SCON
  D:0088H         PUBLIC        TCON
  C:0B84H         PUBLIC        LD_Init_MP3
  I:0031H         PUBLIC        ucLowInt
  C:0869H         PUBLIC        LD_ReloadMp3Data
  D:0024H         PUBLIC        nCurMp3Pos
  B:00A8H.1       PUBLIC        ET0
  B:00A8H.0       PUBLIC        EX0
  C:0C0BH         PUBLIC        LD_Init_ASR
  C:0CF6H         PUBLIC        LD_AsrRun
  C:0710H         PUBLIC        ExtInt0Handler
  C:0C86H         PUBLIC        LD_Init_Common
  I:0032H         PUBLIC        ucStatus
  B:0090H.6       PUBLIC        FLASH_DO
  I:0033H         PUBLIC        nLD_Mode
  B:0090H.7       PUBLIC        FLASH_CS
  D:0028H         PUBLIC        bMp3Play
  D:00D0H         PUBLIC        PSW
  D:0029H         PUBLIC        nMp3Size
  C:0DA0H         SYMBOL        L?0054
  C:0DA2H         SYMBOL        L?0055
  -------         PROC          L?0053
  -------         ENDPROC       L?0053
  C:0DA0H         SYMBOL        L?0054
  C:0DA2H         SYMBOL        L?0055
  -------         PROC          _DELAY
  D:0016H         SYMBOL        uldata
  -------         DO            
  D:001AH         SYMBOL        j
  D:0082H         SYMBOL        g
  -------         ENDDO         
  C:0DA8H         LINE#         30
  C:0DB0H         LINE#         31
  C:0DB0H         LINE#         32
  C:0DB5H         LINE#         33
  C:0DB9H         LINE#         34
  C:0DBDH         LINE#         35
  C:0DBDH         LINE#         36
  C:0DD7H         LINE#         37
  C:0DD7H         LINE#         38
  C:0DD8H         LINE#         39
  C:0DD9H         LINE#         40
  C:0DDAH         LINE#         41
  C:0DDDH         LINE#         42
  C:0DEBH         LINE#         43
  -------         ENDPROC       _DELAY
  -------         PROC          LD_INIT_COMMON
  C:0C86H         LINE#         52
  C:0C86H         LINE#         53
  C:0C86H         LINE#         54
  C:0C89H         LINE#         56
  C:0C8EH         LINE#         58
  C:0C95H         LINE#         59
  C:0C98H         LINE#         60
BL51 BANKED LINKER/LOCATER V6.05                                                      09/19/2010  16:38:49  PAGE 11


  C:0C9FH         LINE#         61
  C:0CA2H         LINE#         63
  C:0CA9H         LINE#         64
  C:0CB0H         LINE#         65
  C:0CB7H         LINE#         68
  C:0CBEH         LINE#         69
  C:0CC5H         LINE#         70
  C:0CCCH         LINE#         71
  C:0CD3H         LINE#         72
  C:0CDAH         LINE#         73
  C:0CE1H         LINE#         74
  C:0CE8H         LINE#         75
  C:0CEFH         LINE#         76
  -------         ENDPROC       LD_INIT_COMMON
  -------         PROC          LD_INIT_MP3
  C:0B84H         LINE#         86
  C:0B84H         LINE#         87
  C:0B84H         LINE#         88
  C:0B88H         LINE#         89
  C:0B8FH         LINE#         90
  C:0B96H         LINE#         92
  C:0B9DH         LINE#         93
  C:0BA4H         LINE#         94
  C:0BABH         LINE#         95
  C:0BB2H         LINE#         96
  C:0BB9H         LINE#         97
  C:0BC0H         LINE#         98
  C:0BC5H         LINE#         99
  C:0BCCH         LINE#         100
  C:0BD3H         LINE#         101
  C:0BDAH         LINE#         102
  C:0BE1H         LINE#         103
  C:0BE8H         LINE#         104
  C:0BEFH         LINE#         105
  C:0BF6H         LINE#         106
  C:0BFDH         LINE#         107
  C:0C04H         LINE#         108
  -------         ENDPROC       LD_INIT_MP3
  -------         PROC          LD_INIT_ASR
  C:0C0BH         LINE#         118
  C:0C0BH         LINE#         119
  C:0C0BH         LINE#         120
  C:0C0FH         LINE#         121
  C:0C16H         LINE#         122
  C:0C1DH         LINE#         124
  C:0C20H         LINE#         125
  C:0C27H         LINE#         126
  C:0C2EH         LINE#         127
  C:0C35H         LINE#         128
  C:0C3CH         LINE#         130
  C:0C43H         LINE#         131
  C:0C4AH         LINE#         133
  C:0C51H         LINE#         134
  C:0C58H         LINE#         136
  C:0C5FH         LINE#         137
  C:0C66H         LINE#         138
  C:0C6DH         LINE#         139
BL51 BANKED LINKER/LOCATER V6.05                                                      09/19/2010  16:38:49  PAGE 12


  C:0C74H         LINE#         140
  C:0C7BH         LINE#         141
  -------         ENDPROC       LD_INIT_ASR
  -------         PROC          EXTINT0HANDLER
  -------         DO            
  D:0008H         SYMBOL        nAsrResCount
  -------         ENDDO         
  C:0710H         LINE#         163
  C:072DH         LINE#         165
  C:0730H         LINE#         167
  C:0732H         LINE#         168
  C:0734H         LINE#         170
  C:073DH         LINE#         171
  C:0746H         LINE#         172
  C:074DH         LINE#         174
  C:0756H         LINE#         175
  C:075DH         LINE#         176
  C:0764H         LINE#         177
  C:0764H         LINE#         178
  C:077CH         LINE#         179
  C:077CH         LINE#         180
  C:0783H         LINE#         181
  C:0790H         LINE#         182
  C:0790H         LINE#         183
  C:0794H         LINE#         184
  C:0796H         LINE#         191
  C:0796H         LINE#         192
  C:079AH         LINE#         193
  C:079AH         LINE#         195
  C:07A1H         LINE#         196
  C:07A5H         LINE#         197
  C:07A7H         LINE#         199
  C:07A7H         LINE#         201
  C:07B0H         LINE#         202
  C:07B0H         LINE#         203
  C:07BEH         LINE#         204
  C:07C5H         LINE#         205
  C:07CCH         LINE#         206
  C:07CFH         LINE#         207
  C:07D6H         LINE#         208
  C:07DBH         LINE#         209
  C:07E2H         LINE#         210
  C:07E9H         LINE#         212
  C:07EDH         LINE#         214
  C:07EDH         LINE#         216
  C:0803H         LINE#         217
  C:0803H         LINE#         218
  C:080AH         LINE#         219
  C:0813H         LINE#         220
  C:0817H         LINE#         221
  C:081CH         LINE#         222
  C:0825H         LINE#         223
  C:0828H         LINE#         224
  C:0830H         LINE#         225
  C:0830H         LINE#         226
  C:0832H         LINE#         229
  C:0832H         LINE#         231
BL51 BANKED LINKER/LOCATER V6.05                                                      09/19/2010  16:38:49  PAGE 13


  C:0835H         LINE#         233
  C:083EH         LINE#         234
  C:0847H         LINE#         236
  C:084AH         LINE#         237
  C:084CH         LINE#         238
  C:084EH         LINE#         240
  -------         ENDPROC       EXTINT0HANDLER
  -------         PROC          LD_PLAY
  C:09D7H         LINE#         249
  C:09D7H         LINE#         250
  C:09D7H         LINE#         251
  C:09E0H         LINE#         252
  C:09E3H         LINE#         254
  C:09F1H         LINE#         255
  C:0A07H         LINE#         258
  C:0A0AH         LINE#         260
  C:0A11H         LINE#         261
  C:0A18H         LINE#         262
  C:0A1FH         LINE#         263
  C:0A28H         LINE#         264
  C:0A30H         LINE#         266
  C:0A39H         LINE#         267
  C:0A41H         LINE#         268
  C:0A4AH         LINE#         269
  C:0A52H         LINE#         270
  C:0A56H         LINE#         271
  C:0A62H         LINE#         272
  C:0A6CH         LINE#         274
  C:0A6EH         LINE#         276
  -------         ENDPROC       LD_PLAY
  -------         PROC          _LD_ADJUSTMIX2SPVOLUME
  D:002DH         SYMBOL        val
  C:0E1BH         LINE#         288
  C:0E1DH         LINE#         289
  C:0E1DH         LINE#         290
  C:0E21H         LINE#         291
  C:0E2EH         LINE#         292
  C:0E39H         LINE#         293
  C:0E41H         LINE#         294
  -------         ENDPROC       _LD_ADJUSTMIX2SPVOLUME
  -------         PROC          LD_RELOADMP3DATA
  -------         DO            
  D:0009H         SYMBOL        nCurMp3Pos
  D:000DH         SYMBOL        val
  D:0007H         SYMBOL        k
  -------         ENDDO         
  C:0869H         LINE#         304
  C:0869H         LINE#         305
  C:0869H         LINE#         310
  C:0884H         LINE#         311
  C:0886H         LINE#         312
  C:0888H         LINE#         313
  C:088AH         LINE#         315
  C:088FH         LINE#         316
  C:08A2H         LINE#         317
  C:08B3H         LINE#         318
  C:08BAH         LINE#         319
BL51 BANKED LINKER/LOCATER V6.05                                                      09/19/2010  16:38:49  PAGE 14


  C:08BFH         LINE#         321
  C:08C1H         LINE#         322
  C:08DDH         LINE#         323
  C:08DDH         LINE#         324
  C:08E0H         LINE#         325
  C:08E1H         LINE#         326
  C:08E1H         LINE#         327
  C:08E3H         LINE#         328
  C:08E9H         LINE#         329
  C:08EBH         LINE#         330
  C:08F1H         LINE#         331
  C:08F5H         LINE#         332
  C:08FCH         LINE#         334
  C:0914H         LINE#         336
  C:091DH         LINE#         337
  C:091FH         LINE#         339
  C:0921H         LINE#         340
  C:0923H         LINE#         342
  -------         ENDPROC       LD_RELOADMP3DATA
  -------         PROC          LD_CHECK_ASRBUSYFLAG_B2
  -------         DO            
  D:0014H         SYMBOL        j
  D:0015H         SYMBOL        flag
  -------         ENDDO         
  C:0EEFH         LINE#         355
  C:0EEFH         LINE#         356
  C:0EEFH         LINE#         358
  C:0EF2H         LINE#         359
  C:0EF4H         LINE#         360
  C:0EF4H         LINE#         361
  C:0EFCH         LINE#         362
  C:0EFCH         LINE#         363
  C:0EFFH         LINE#         364
  C:0F01H         LINE#         365
  C:0F01H         LINE#         366
  C:0F04H         LINE#         367
  C:0F0DH         LINE#         368
  C:0F0FH         LINE#         369
  -------         ENDPROC       LD_CHECK_ASRBUSYFLAG_B2
  -------         PROC          LD_ASRSTART
  C:0F83H         LINE#         378
  C:0F83H         LINE#         379
  C:0F83H         LINE#         380
  C:0F86H         LINE#         381
  -------         ENDPROC       LD_ASRSTART
  -------         PROC          LD_ASRRUN
  C:0CF6H         LINE#         391
  C:0CF6H         LINE#         392
  C:0CF6H         LINE#         393
  C:0CFDH         LINE#         394
  C:0D04H         LINE#         395
  C:0D0BH         LINE#         396
  C:0D12H         LINE#         397
  C:0D17H         LINE#         398
  C:0D1EH         LINE#         399
  C:0D23H         LINE#         401
  C:0D29H         LINE#         402
BL51 BANKED LINKER/LOCATER V6.05                                                      09/19/2010  16:38:49  PAGE 15


  C:0D29H         LINE#         403
  C:0D2BH         LINE#         404
  C:0D2BH         LINE#         406
  C:0D32H         LINE#         407
  C:0D39H         LINE#         408
  C:0D3EH         LINE#         409
  C:0D45H         LINE#         410
  C:0D4CH         LINE#         412
  C:0D4EH         LINE#         413
  C:0D50H         LINE#         414
  -------         ENDPROC       LD_ASRRUN
  -------         PROC          LD_ASRADDFIXED
  -------         DO            
  D:0011H         SYMBOL        k
  D:0012H         SYMBOL        flag
  D:0013H         SYMBOL        nAsrAddLength
  C:02DDH         SYMBOL        sRecog
  C:0581H         SYMBOL        pCode
  -------         ENDDO         
  C:0AFBH         LINE#         424
  C:0AFBH         LINE#         425
  C:0AFBH         LINE#         450
  C:0AFEH         LINE#         451
  C:0B01H         LINE#         452
  C:0B01H         LINE#         454
  C:0B07H         LINE#         455
  C:0B07H         LINE#         456
  C:0B09H         LINE#         457
  C:0B0CH         LINE#         458
  C:0B0CH         LINE#         460
  C:0B18H         LINE#         461
  C:0B1FH         LINE#         462
  C:0B26H         LINE#         463
  C:0B2BH         LINE#         464
  C:0B32H         LINE#         465
  C:0B37H         LINE#         467
  C:0B3AH         LINE#         468
  C:0B3AH         LINE#         469
  C:0B55H         LINE#         470
  C:0B55H         LINE#         471
  C:0B5AH         LINE#         472
  C:0B63H         LINE#         473
  C:0B6AH         LINE#         474
  C:0B71H         LINE#         475
  C:0B78H         LINE#         476
  C:0B81H         LINE#         477
  C:0B83H         LINE#         478
  -------         ENDPROC       LD_ASRADDFIXED
  -------         PROC          LD_GETRESULT
  -------         DO            
  D:0007H         SYMBOL        temp
  -------         ENDDO         
  C:0F5EH         LINE#         488
  C:0F5EH         LINE#         489
  C:0F5EH         LINE#         491
  C:0F63H         LINE#         492
  C:0F69H         LINE#         493
BL51 BANKED LINKER/LOCATER V6.05                                                      09/19/2010  16:38:49  PAGE 16


  C:0F6AH         LINE#         494
  C:0F6CH         LINE#         495
  -------         ENDPROC       LD_GETRESULT
  -------         ENDMOD        LDCHIP

  -------         MODULE        LDCHIP_HARDW
  C:0000H         SYMBOL        _ICE_DUMMY_
  D:0090H         PUBLIC        P1
  D:00B0H         PUBLIC        P3
  D:00A8H         PUBLIC        IE
  C:0F78H         PUBLIC        _LD_ReadReg
  C:0F10H         PUBLIC        LD_reset
  D:00B8H         PUBLIC        IP
  C:0F6DH         PUBLIC        _LD_WriteReg
  D:00D8H         PUBLIC        CCON
  B:0090H.3       PUBLIC        FLASH_CLK
  B:0090H.2       PUBLIC        FLASH_DIO
  D:0098H         PUBLIC        SCON
  D:0088H         PUBLIC        TCON
  B:00B0H.3       PUBLIC        RSTB
  B:0090H.7       PUBLIC        FLASH_CS
  D:00D0H         PUBLIC        PSW
  C:0F2DH         PUBLIC        _IO_Send_Byte
  -------         PROC          _LD_WRITEREG
  D:0007H         SYMBOL        ulAddr
  D:0005H         SYMBOL        ucVal
  C:0F6DH         LINE#         34
  C:0F6DH         LINE#         35
  C:0F6DH         LINE#         36
  C:0F72H         LINE#         37
  C:0F77H         LINE#         38
  -------         ENDPROC       _LD_WRITEREG
  -------         PROC          _LD_READREG
  D:0007H         SYMBOL        ulAddr
  C:0F78H         LINE#         46
  C:0F78H         LINE#         47
  C:0F78H         LINE#         48
  C:0F7DH         LINE#         49
  C:0F82H         LINE#         50
  -------         ENDPROC       _LD_READREG
  -------         PROC          LD_RESET
  C:0F10H         LINE#         170
  C:0F10H         LINE#         171
  C:0F10H         LINE#         172
  C:0F12H         LINE#         173
  C:0F1DH         LINE#         174
  C:0F1FH         LINE#         175
  C:0F2AH         LINE#         176
  C:0F2CH         LINE#         177
  -------         ENDPROC       LD_RESET
  -------         PROC          _IO_SEND_BYTE
  D:0007H         SYMBOL        dataout
  -------         DO            
  D:0006H         SYMBOL        i
  -------         ENDDO         
  C:0F2DH         LINE#         185
  C:0F2DH         LINE#         186
BL51 BANKED LINKER/LOCATER V6.05                                                      09/19/2010  16:38:49  PAGE 17


  C:0F2DH         LINE#         187
  C:0F2FH         LINE#         188
  C:0F31H         LINE#         189
  C:0F31H         LINE#         190
  C:0F31H         LINE#         191
  C:0F35H         LINE#         192
  C:0F39H         LINE#         194
  C:0F3BH         LINE#         195
  C:0F3DH         LINE#         196
  C:0F41H         LINE#         197
  C:0F43H         LINE#         198
  C:0F47H         LINE#         199
  -------         ENDPROC       _IO_SEND_BYTE
  -------         ENDMOD        LDCHIP_HARDW

  -------         MODULE        UART
  C:0000H         SYMBOL        _ICE_DUMMY_
  D:0090H         PUBLIC        P1
  D:00B0H         PUBLIC        P3
  B:00A8H.7       PUBLIC        EA
  D:00A8H         PUBLIC        IE
  D:00B8H         PUBLIC        IP
  B:0098H.1       PUBLIC        TI
  D:00D8H         PUBLIC        CCON
  D:0099H         PUBLIC        SBUF
  D:0087H         PUBLIC        PCON
  D:0098H         PUBLIC        SCON
  C:0F48H         PUBLIC        UartInit
  D:0089H         PUBLIC        TMOD
  D:0088H         PUBLIC        TCON
  I:0034H         PUBLIC        g_ucLen
  D:008EH         PUBLIC        AUXR
  B:00A8H.3       PUBLIC        ET1
  I:0035H         PUBLIC        g_ucCur
  B:0088H.6       PUBLIC        TR1
  C:0EC8H         PUBLIC        _UartSendStr
  D:009CH         PUBLIC        BRT
  D:00D0H         PUBLIC        PSW
  -------         PROC          UARTINIT
  C:0F48H         LINE#         36
  C:0F48H         LINE#         37
  C:0F48H         LINE#         38
  C:0F4BH         LINE#         39
  C:0F4EH         LINE#         40
  C:0F51H         LINE#         41
  C:0F54H         LINE#         44
  C:0F57H         LINE#         49
  C:0F59H         LINE#         50
  C:0F5BH         LINE#         51
  C:0F5DH         LINE#         52
  -------         ENDPROC       UARTINIT
  -------         PROC          _UARTSENDSTR
  D:0015H         SYMBOL        pStr
  C:0EC8H         LINE#         62
  C:0ECEH         LINE#         63
  C:0ECEH         LINE#         64
  C:0ED9H         LINE#         65
BL51 BANKED LINKER/LOCATER V6.05                                                      09/19/2010  16:38:49  PAGE 18


  C:0ED9H         LINE#         66
  C:0EE7H         LINE#         67
  C:0EEAH         LINE#         68
  C:0EECH         LINE#         69
  C:0EEEH         LINE#         70
  -------         ENDPROC       _UARTSENDSTR
  -------         ENDMOD        UART

  -------         MODULE        ?C?COPY
  C:066BH         PUBLIC        ?C?COPY
  -------         ENDMOD        ?C?COPY

  -------         MODULE        ?C?CLDPTR
  C:0691H         PUBLIC        ?C?CLDPTR
  -------         ENDMOD        ?C?CLDPTR

  -------         MODULE        ?C?ULCMP
  C:06AAH         PUBLIC        ?C?ULCMP
  -------         ENDMOD        ?C?ULCMP

  -------         MODULE        ?C?ULSHR
  C:06BBH         PUBLIC        ?C?ULSHR
  -------         ENDMOD        ?C?ULSHR

  -------         MODULE        ?C?OFFXADD
  C:06CEH         PUBLIC        ?C?OFFXADD
  -------         ENDMOD        ?C?OFFXADD

  -------         MODULE        ?C?PLDIIDATA
  C:06DAH         PUBLIC        ?C?PLDIIDATA
  -------         ENDMOD        ?C?PLDIIDATA

  -------         MODULE        ?C?CCASE
  C:06EAH         PUBLIC        ?C?CCASE
  -------         ENDMOD        ?C?CCASE

*** WARNING L16: UNCALLED SEGMENT, IGNORED FOR OVERLAY PROCESS
    SEGMENT: ?PR?LD_INIT_MP3?LDCHIP

*** WARNING L16: UNCALLED SEGMENT, IGNORED FOR OVERLAY PROCESS
    SEGMENT: ?PR?LD_PLAY?LDCHIP

*** WARNING L16: UNCALLED SEGMENT, IGNORED FOR OVERLAY PROCESS
    SEGMENT: ?PR?_LD_ADJUSTMIX2SPVOLUME?LDCHIP

*** WARNING L15: MULTIPLE CALL TO SEGMENT
    SEGMENT: ?PR?_DELAY?LDCHIP
    CALLER1: ?PR?EXTINT0HANDLER?LDCHIP
    CALLER2: ?C_C51STARTUP

Program Size: data=57.0 xdata=0 code=3977
LINK/LOCATE RUN COMPLETE.  4 WARNING(S),  0 ERROR(S)
